                              1 ;--------------------------------------------------------
                              2 ; File Created by SDCC : FreeWare ANSI-C Compiler
                              3 ; Version 2.1.9Ga Sun Jan 16 17:31:33 2000
                              4 
                              5 ;--------------------------------------------------------
                              6 	.module _strncat
                              7 ;--------------------------------------------------------
                              8 ; publics variables in this module
                              9 ;--------------------------------------------------------
                             10 	.globl _strncat_PARM_3
                             11 	.globl _strncat_PARM_2
                             12 	.globl _strncat
                             13 ;--------------------------------------------------------
                             14 ; special function registers
                             15 ;--------------------------------------------------------
                             16 ;--------------------------------------------------------
                             17 ; special function bits 
                             18 ;--------------------------------------------------------
                             19 ;--------------------------------------------------------
                             20 ; internal ram data
                             21 ;--------------------------------------------------------
                             22 	.area	DSEG    (DATA)
   0000                      23 _strncat_sloc0_1_0:
   0000                      24 	.ds	0x0003
   0003                      25 _strncat_sloc1_1_0:
   0003                      26 	.ds	0x0003
   0006                      27 _strncat_sloc2_1_0:
   0006                      28 	.ds	0x0003
                             29 ;--------------------------------------------------------
                             30 ; overlayable items in internal ram 
                             31 ;--------------------------------------------------------
                             32 	.area	OSEG	(OVR,DATA)
                             33 ;--------------------------------------------------------
                             34 ; indirectly addressable internal ram data
                             35 ;--------------------------------------------------------
                             36 	.area	ISEG    (DATA)
                             37 ;--------------------------------------------------------
                             38 ; bit data
                             39 ;--------------------------------------------------------
                             40 	.area	BSEG    (BIT)
                             41 ;--------------------------------------------------------
                             42 ; external ram data
                             43 ;--------------------------------------------------------
                             44 	.area	XSEG    (XDATA)
   0000                      45 _strncat_PARM_2:
   0000                      46 	.ds	0x0003
   0003                      47 _strncat_PARM_3:
   0003                      48 	.ds	0x0002
   0005                      49 _strncat_front_1_1:
   0005                      50 	.ds	0x0003
                             51 ;--------------------------------------------------------
                             52 ; global & static initialisations
                             53 ;--------------------------------------------------------
                             54 	.area GSINIT (CODE)
                             55 ;--------------------------------------------------------
                             56 ; code
                             57 ;--------------------------------------------------------
                             58 	.area CSEG (CODE)
                    0000     59 	G$strncat$0$0 ==.
                             60 ;	_strncat.c 27
                             61 ;	-----------------------------------------
                             62 ;	 function strncat
                             63 ;	-----------------------------------------
   0000                      64 _strncat:
                    0002     65 	ar2 = 0x02
                    0003     66 	ar3 = 0x03
                    0004     67 	ar4 = 0x04
                    0005     68 	ar5 = 0x05
                    0006     69 	ar6 = 0x06
                    0007     70 	ar7 = 0x07
                    0000     71 	ar0 = 0x00
                    0001     72 	ar1 = 0x01
                             73 ;	_strncat.c 44
   0000 C0 F0                74 	push	b
   0002 C0 83                75 	push	dph
   0004 C0 82                76 	push	dpl
   0006 90s00r05             77 	mov	dptr,#_strncat_front_1_1
   0009 D0 E0                78 	pop	acc
   000B F0                   79 	movx	@dptr,a
   000C D0 E0                80 	pop	acc
   000E A3                   81 	inc	dptr
   000F F0                   82 	movx	@dptr,a
   0010 D0 E0                83 	pop	acc
   0012 A3                   84 	inc	dptr
   0013 F0                   85 	movx	@dptr,a
                             86 ;	_strncat.c 33
   0014 90s00r05             87 	mov	dptr,#_strncat_front_1_1
   0017 E0                   88 	movx	a,@dptr
   0018 F5*00                89 	mov	_strncat_sloc0_1_0,a
   001A A3                   90 	inc	dptr
   001B E0                   91 	movx	a,@dptr
   001C F5*01                92 	mov	(_strncat_sloc0_1_0 + 1),a
   001E A3                   93 	inc	dptr
   001F E0                   94 	movx	a,@dptr
   0020 F5*02                95 	mov	(_strncat_sloc0_1_0 + 2),a
                             96 ;	_strncat.c 35
   0022                      97 00101$:
   0022 90s00r05             98 	mov	dptr,#_strncat_front_1_1
   0025 E0                   99 	movx	a,@dptr
   0026 FD                  100 	mov	r5,a
   0027 A3                  101 	inc	dptr
   0028 E0                  102 	movx	a,@dptr
   0029 FE                  103 	mov	r6,a
   002A A3                  104 	inc	dptr
   002B E0                  105 	movx	a,@dptr
   002C FF                  106 	mov	r7,a
   002D 74 01               107 	mov	a,#0x01
   002F 2D                  108 	add	a,r5
   0030 F8                  109 	mov	r0,a
                            110 ; Peephole 180   changed mov to clr
   0031 E4                  111 	clr  a
   0032 3E                  112 	addc	a,r6
   0033 F9                  113 	mov	r1,a
   0034 8F 02               114 	mov	ar2,r7
   0036 90s00r05            115 	mov	dptr,#_strncat_front_1_1
   0039 E8                  116 	mov	a,r0
   003A F0                  117 	movx	@dptr,a
   003B A3                  118 	inc	dptr
   003C E9                  119 	mov	a,r1
   003D F0                  120 	movx	@dptr,a
   003E A3                  121 	inc	dptr
   003F EA                  122 	mov	a,r2
   0040 F0                  123 	movx	@dptr,a
   0041 8D 82               124 	mov	dpl,r5
   0043 8E 83               125 	mov	dph,r6
   0045 8F F0               126 	mov	b,r7
   0047 12s00r00            127 	lcall	__gptrget
                            128 ; Peephole 105   removed redundant mov
   004A FD                  129 	mov  r5,a
                            130 ; Peephole 109   removed ljmp by inverse jump logic
   004B 70 D5               131 	jnz  00101$
   004D                     132 00116$:
                            133 ;	_strncat.c 37
   004D E8                  134 	mov	a,r0
   004E 24 FF               135 	add	a,#0xff
   0050 FC                  136 	mov	r4,a
   0051 E9                  137 	mov	a,r1
   0052 34 FF               138 	addc	a,#0xff
   0054 FB                  139 	mov	r3,a
   0055 90s00r05            140 	mov	dptr,#_strncat_front_1_1
   0058 EC                  141 	mov	a,r4
   0059 F0                  142 	movx	@dptr,a
   005A A3                  143 	inc	dptr
   005B EB                  144 	mov	a,r3
   005C F0                  145 	movx	@dptr,a
   005D A3                  146 	inc	dptr
   005E EA                  147 	mov	a,r2
   005F F0                  148 	movx	@dptr,a
                            149 ;	_strncat.c 39
   0060 8C*06               150 	mov	_strncat_sloc2_1_0,r4
   0062 8B*07               151 	mov	(_strncat_sloc2_1_0 + 1),r3
   0064 8A*08               152 	mov	(_strncat_sloc2_1_0 + 2),r2
   0066 90s00r00            153 	mov	dptr,#_strncat_PARM_2
   0069 E0                  154 	movx	a,@dptr
   006A F5*03               155 	mov	_strncat_sloc1_1_0,a
   006C A3                  156 	inc	dptr
   006D E0                  157 	movx	a,@dptr
   006E F5*04               158 	mov	(_strncat_sloc1_1_0 + 1),a
   0070 A3                  159 	inc	dptr
   0071 E0                  160 	movx	a,@dptr
   0072 F5*05               161 	mov	(_strncat_sloc1_1_0 + 2),a
   0074 90s00r03            162 	mov	dptr,#_strncat_PARM_3
   0077 E0                  163 	movx	a,@dptr
   0078 FD                  164 	mov	r5,a
   0079 A3                  165 	inc	dptr
   007A E0                  166 	movx	a,@dptr
   007B F8                  167 	mov	r0,a
   007C                     168 00106$:
   007C 8D 01               169 	mov	ar1,r5
   007E 88 02               170 	mov	ar2,r0
   0080 1D                  171 	dec	r5
   0081 BD FF 01            172 	cjne	r5,#0xff,00117$
   0084 18                  173 	dec	r0
   0085                     174 00117$:
   0085 E9                  175 	mov	a,r1
   0086 4A                  176 	orl	a,r2
                            177 ; Peephole 110   removed ljmp by inverse jump logic
   0087 60 47               178 	jz  00108$
   0089                     179 00118$:
                            180 ;	_strncat.c 40
   0089 AA*06               181 	mov	r2,_strncat_sloc2_1_0
   008B AB*07               182 	mov	r3,(_strncat_sloc2_1_0 + 1)
   008D AC*08               183 	mov	r4,(_strncat_sloc2_1_0 + 2)
   008F 05*06               184 	inc	_strncat_sloc2_1_0
   0091 E4                  185 	clr	a
   0092 B5*06 02            186 	cjne	a,_strncat_sloc2_1_0,00119$
   0095 05*07               187 	inc	(_strncat_sloc2_1_0 + 1)
   0097                     188 00119$:
   0097 90s00r05            189 	mov	dptr,#_strncat_front_1_1
   009A E5*06               190 	mov	a,_strncat_sloc2_1_0
   009C F0                  191 	movx	@dptr,a
   009D A3                  192 	inc	dptr
   009E E5*07               193 	mov	a,(_strncat_sloc2_1_0 + 1)
   00A0 F0                  194 	movx	@dptr,a
   00A1 A3                  195 	inc	dptr
   00A2 E5*08               196 	mov	a,(_strncat_sloc2_1_0 + 2)
   00A4 F0                  197 	movx	@dptr,a
   00A5 85*03 82            198 	mov	dpl,_strncat_sloc1_1_0
   00A8 85*04 83            199 	mov	dph,(_strncat_sloc1_1_0 + 1)
   00AB 85*05 F0            200 	mov	b,(_strncat_sloc1_1_0 + 2)
   00AE 05*03               201 	inc	_strncat_sloc1_1_0
   00B0 E4                  202 	clr	a
   00B1 B5*03 02            203 	cjne	a,_strncat_sloc1_1_0,00120$
   00B4 05*04               204 	inc	(_strncat_sloc1_1_0 + 1)
   00B6                     205 00120$:
   00B6 12s00r00            206 	lcall	__gptrget
                            207 ; Peephole 190   removed redundant mov
                            208 ; Peephole 191   removed redundant mov
   00B9 F9                  209 	mov  r1,a
   00BA 8A 82               210 	mov  dpl,r2
   00BC 8B 83               211 	mov  dph,r3
   00BE 8C F0               212 	mov  b,r4
   00C0 12s00r00            213 	lcall __gptrput
                            214 ; Peephole 109   removed ljmp by inverse jump logic
   00C3 70 B7               215 	jnz  00106$
   00C5                     216 00121$:
                            217 ;	_strncat.c 41
   00C5 85*00 82            218 	mov	dpl,_strncat_sloc0_1_0
   00C8 85*01 83            219 	mov	dph,(_strncat_sloc0_1_0 + 1)
   00CB 85*02 F0            220 	mov	b,(_strncat_sloc0_1_0 + 2)
                            221 ; Peephole 132   changed ljmp to sjmp
   00CE 80 1E               222 	sjmp 00109$
   00D0                     223 00108$:
                            224 ;	_strncat.c 43
   00D0 90s00r05            225 	mov	dptr,#_strncat_front_1_1
   00D3 E0                  226 	movx	a,@dptr
   00D4 FA                  227 	mov	r2,a
   00D5 A3                  228 	inc	dptr
   00D6 E0                  229 	movx	a,@dptr
   00D7 FB                  230 	mov	r3,a
   00D8 A3                  231 	inc	dptr
   00D9 E0                  232 	movx	a,@dptr
   00DA FC                  233 	mov	r4,a
   00DB 8A 82               234 	mov	dpl,r2
   00DD 8B 83               235 	mov	dph,r3
   00DF 8C F0               236 	mov	b,r4
                            237 ; Peephole 180   changed mov to clr
   00E1 E4                  238 	clr  a
   00E2 12s00r00            239 	lcall	__gptrput
                            240 ;	_strncat.c 44
   00E5 85*00 82            241 	mov	dpl,_strncat_sloc0_1_0
   00E8 85*01 83            242 	mov	dph,(_strncat_sloc0_1_0 + 1)
   00EB 85*02 F0            243 	mov	b,(_strncat_sloc0_1_0 + 2)
   00EE                     244 00109$:
                    00EE    245 	C$_strncat.c$45$1$1 ==.
                    00EE    246 	XG$strncat$0$0 ==.
   00EE 22                  247 	ret
                            248 	.area	CSEG    (CODE)
