                              1 ;--------------------------------------------------------
                              2 ; File Created by SDCC : FreeWare ANSI-C Compiler
                              3 ; Version 2.1.9Ga Sun Jan 16 17:31:37 2000
                              4 
                              5 ;--------------------------------------------------------
                              6 	.module printfl
                              7 ;--------------------------------------------------------
                              8 ; publics variables in this module
                              9 ;--------------------------------------------------------
                             10 	.globl _printf_small
                             11 ;--------------------------------------------------------
                             12 ; special function registers
                             13 ;--------------------------------------------------------
                    0080     14 G$P0$0$0 == 0x0080
                    0080     15 _P0	=	0x0080
                    0090     16 G$P1$0$0 == 0x0090
                    0090     17 _P1	=	0x0090
                    00A0     18 G$P2$0$0 == 0x00a0
                    00A0     19 _P2	=	0x00a0
                    00B0     20 G$P3$0$0 == 0x00b0
                    00B0     21 _P3	=	0x00b0
                    00D0     22 G$PSW$0$0 == 0x00d0
                    00D0     23 _PSW	=	0x00d0
                    00E0     24 G$ACC$0$0 == 0x00e0
                    00E0     25 _ACC	=	0x00e0
                    00F0     26 G$B$0$0 == 0x00f0
                    00F0     27 _B	=	0x00f0
                    0081     28 G$SP$0$0 == 0x0081
                    0081     29 _SP	=	0x0081
                    0082     30 G$DPL$0$0 == 0x0082
                    0082     31 _DPL	=	0x0082
                    0083     32 G$DPH$0$0 == 0x0083
                    0083     33 _DPH	=	0x0083
                    0087     34 G$PCON$0$0 == 0x0087
                    0087     35 _PCON	=	0x0087
                    0088     36 G$TCON$0$0 == 0x0088
                    0088     37 _TCON	=	0x0088
                    0089     38 G$TMOD$0$0 == 0x0089
                    0089     39 _TMOD	=	0x0089
                    008A     40 G$TL0$0$0 == 0x008a
                    008A     41 _TL0	=	0x008a
                    008B     42 G$TL1$0$0 == 0x008b
                    008B     43 _TL1	=	0x008b
                    008C     44 G$TH0$0$0 == 0x008c
                    008C     45 _TH0	=	0x008c
                    008D     46 G$TH1$0$0 == 0x008d
                    008D     47 _TH1	=	0x008d
                    008E     48 G$AUXR$0$0 == 0x008e
                    008E     49 _AUXR	=	0x008e
                    00A8     50 G$IE$0$0 == 0x00a8
                    00A8     51 _IE	=	0x00a8
                    00B8     52 G$IP$0$0 == 0x00b8
                    00B8     53 _IP	=	0x00b8
                    0098     54 G$SCON$0$0 == 0x0098
                    0098     55 _SCON	=	0x0098
                    0099     56 G$SBUF$0$0 == 0x0099
                    0099     57 _SBUF	=	0x0099
                    00C8     58 G$T2CON$0$0 == 0x00c8
                    00C8     59 _T2CON	=	0x00c8
                    00CB     60 G$RCAP2H$0$0 == 0x00cb
                    00CB     61 _RCAP2H	=	0x00cb
                    00CA     62 G$RCAP2L$0$0 == 0x00ca
                    00CA     63 _RCAP2L	=	0x00ca
                             64 ;--------------------------------------------------------
                             65 ; special function bits 
                             66 ;--------------------------------------------------------
                    00D7     67 G$CY$0$0 == 0x00d7
                    00D7     68 _CY	=	0x00d7
                    00D6     69 G$AC$0$0 == 0x00d6
                    00D6     70 _AC	=	0x00d6
                    00D5     71 G$F0$0$0 == 0x00d5
                    00D5     72 _F0	=	0x00d5
                    00D4     73 G$RS1$0$0 == 0x00d4
                    00D4     74 _RS1	=	0x00d4
                    00D3     75 G$RS0$0$0 == 0x00d3
                    00D3     76 _RS0	=	0x00d3
                    00D2     77 G$OV$0$0 == 0x00d2
                    00D2     78 _OV	=	0x00d2
                    00D0     79 G$P$0$0 == 0x00d0
                    00D0     80 _P	=	0x00d0
                    008F     81 G$TF1$0$0 == 0x008f
                    008F     82 _TF1	=	0x008f
                    008E     83 G$TR1$0$0 == 0x008e
                    008E     84 _TR1	=	0x008e
                    008D     85 G$TF0$0$0 == 0x008d
                    008D     86 _TF0	=	0x008d
                    008C     87 G$TR0$0$0 == 0x008c
                    008C     88 _TR0	=	0x008c
                    008B     89 G$IE1$0$0 == 0x008b
                    008B     90 _IE1	=	0x008b
                    008A     91 G$IT1$0$0 == 0x008a
                    008A     92 _IT1	=	0x008a
                    0089     93 G$IE0$0$0 == 0x0089
                    0089     94 _IE0	=	0x0089
                    0088     95 G$IT0$0$0 == 0x0088
                    0088     96 _IT0	=	0x0088
                    00AF     97 G$EA$0$0 == 0x00af
                    00AF     98 _EA	=	0x00af
                    00AC     99 G$ES$0$0 == 0x00ac
                    00AC    100 _ES	=	0x00ac
                    00AB    101 G$ET1$0$0 == 0x00ab
                    00AB    102 _ET1	=	0x00ab
                    00AA    103 G$EX1$0$0 == 0x00aa
                    00AA    104 _EX1	=	0x00aa
                    00A9    105 G$ET0$0$0 == 0x00a9
                    00A9    106 _ET0	=	0x00a9
                    00A8    107 G$EX0$0$0 == 0x00a8
                    00A8    108 _EX0	=	0x00a8
                    00BC    109 G$PS$0$0 == 0x00bc
                    00BC    110 _PS	=	0x00bc
                    00BB    111 G$PT1$0$0 == 0x00bb
                    00BB    112 _PT1	=	0x00bb
                    00BA    113 G$PX1$0$0 == 0x00ba
                    00BA    114 _PX1	=	0x00ba
                    00B9    115 G$PT0$0$0 == 0x00b9
                    00B9    116 _PT0	=	0x00b9
                    00B8    117 G$PX0$0$0 == 0x00b8
                    00B8    118 _PX0	=	0x00b8
                    00B7    119 G$RD$0$0 == 0x00b7
                    00B7    120 _RD	=	0x00b7
                    00B6    121 G$WR$0$0 == 0x00b6
                    00B6    122 _WR	=	0x00b6
                    00B5    123 G$T1$0$0 == 0x00b5
                    00B5    124 _T1	=	0x00b5
                    00B4    125 G$T0$0$0 == 0x00b4
                    00B4    126 _T0	=	0x00b4
                    00B3    127 G$INT1$0$0 == 0x00b3
                    00B3    128 _INT1	=	0x00b3
                    00B2    129 G$INT0$0$0 == 0x00b2
                    00B2    130 _INT0	=	0x00b2
                    00B1    131 G$TXD$0$0 == 0x00b1
                    00B1    132 _TXD	=	0x00b1
                    00B0    133 G$RXD$0$0 == 0x00b0
                    00B0    134 _RXD	=	0x00b0
                    0090    135 G$P1_0$0$0 == 0x0090
                    0090    136 _P1_0	=	0x0090
                    0091    137 G$P1_1$0$0 == 0x0091
                    0091    138 _P1_1	=	0x0091
                    0092    139 G$P1_2$0$0 == 0x0092
                    0092    140 _P1_2	=	0x0092
                    0093    141 G$P1_3$0$0 == 0x0093
                    0093    142 _P1_3	=	0x0093
                    0094    143 G$P1_4$0$0 == 0x0094
                    0094    144 _P1_4	=	0x0094
                    0095    145 G$P1_5$0$0 == 0x0095
                    0095    146 _P1_5	=	0x0095
                    0096    147 G$P1_6$0$0 == 0x0096
                    0096    148 _P1_6	=	0x0096
                    0097    149 G$P1_7$0$0 == 0x0097
                    0097    150 _P1_7	=	0x0097
                    009F    151 G$SM0$0$0 == 0x009f
                    009F    152 _SM0	=	0x009f
                    009E    153 G$SM1$0$0 == 0x009e
                    009E    154 _SM1	=	0x009e
                    009D    155 G$SM2$0$0 == 0x009d
                    009D    156 _SM2	=	0x009d
                    009C    157 G$REN$0$0 == 0x009c
                    009C    158 _REN	=	0x009c
                    009B    159 G$TB8$0$0 == 0x009b
                    009B    160 _TB8	=	0x009b
                    009A    161 G$RB8$0$0 == 0x009a
                    009A    162 _RB8	=	0x009a
                    0099    163 G$TI$0$0 == 0x0099
                    0099    164 _TI	=	0x0099
                    0098    165 G$RI$0$0 == 0x0098
                    0098    166 _RI	=	0x0098
                    00C8    167 G$T2CON_0$0$0 == 0x00c8
                    00C8    168 _T2CON_0	=	0x00c8
                    00C9    169 G$T2CON_1$0$0 == 0x00c9
                    00C9    170 _T2CON_1	=	0x00c9
                    00CA    171 G$T2CON_2$0$0 == 0x00ca
                    00CA    172 _T2CON_2	=	0x00ca
                    00CB    173 G$T2CON_3$0$0 == 0x00cb
                    00CB    174 _T2CON_3	=	0x00cb
                    00CC    175 G$T2CON_4$0$0 == 0x00cc
                    00CC    176 _T2CON_4	=	0x00cc
                    00CD    177 G$T2CON_5$0$0 == 0x00cd
                    00CD    178 _T2CON_5	=	0x00cd
                    00CE    179 G$T2CON_6$0$0 == 0x00ce
                    00CE    180 _T2CON_6	=	0x00ce
                    00CF    181 G$T2CON_7$0$0 == 0x00cf
                    00CF    182 _T2CON_7	=	0x00cf
                            183 ;--------------------------------------------------------
                            184 ; internal ram data
                            185 ;--------------------------------------------------------
                            186 	.area	DSEG    (DATA)
                    0000    187 Fprintfl$ch$0$0==.
   0000                     188 _ch:
   0000                     189 	.ds	0x0001
                    0001    190 Fprintfl$radix$0$0==.
   0001                     191 _radix:
   0001                     192 	.ds	0x0001
                    0002    193 Fprintfl$str$0$0==.
   0002                     194 _str:
   0002                     195 	.ds	0x0003
                    0005    196 Fprintfl$val$0$0==.
   0005                     197 _val:
   0005                     198 	.ds	0x0004
   0009                     199 _pvaloct_sloc0_1_0:
   0009                     200 	.ds	0x0004
   000D                     201 _printf_small_sloc0_1_0:
   000D                     202 	.ds	0x0001
   000E                     203 _printf_small_sloc1_1_0:
   000E                     204 	.ds	0x0003
                            205 ;--------------------------------------------------------
                            206 ; overlayable items in internal ram 
                            207 ;--------------------------------------------------------
                            208 	.area	OSEG	(OVR,DATA)
                            209 ;--------------------------------------------------------
                            210 ; indirectly addressable internal ram data
                            211 ;--------------------------------------------------------
                            212 	.area	ISEG    (DATA)
                            213 ;--------------------------------------------------------
                            214 ; bit data
                            215 ;--------------------------------------------------------
                            216 	.area	BSEG    (BIT)
                    0000    217 Fprintfl$long_flag$0$0==.
   0000                     218 _long_flag:
   0000                     219 	.ds	0x0001
                    0001    220 Fprintfl$string_flag$0$0==.
   0001                     221 _string_flag:
   0001                     222 	.ds	0x0001
                    0002    223 Fprintfl$short_flag$0$0==.
   0002                     224 _short_flag:
   0002                     225 	.ds	0x0001
                    0003    226 Fprintfl$sign$0$0==.
   0003                     227 _sign:
   0003                     228 	.ds	0x0001
                            229 ;--------------------------------------------------------
                            230 ; external ram data
                            231 ;--------------------------------------------------------
                            232 	.area	XSEG    (XDATA)
   0000                     233 _pvalhex_val_1_1:
   0000                     234 	.ds	0x0004
   0004                     235 _pvalhex_sp_1_1:
   0004                     236 	.ds	0x0001
   0005                     237 _pvalhex_lval_1_1:
   0005                     238 	.ds	0x0004
   0009                     239 _pvaloct_val_1_1:
   0009                     240 	.ds	0x0004
   000D                     241 _pvaloct_lval_1_1:
   000D                     242 	.ds	0x0004
   0011                     243 _pvaldec_val_1_1:
   0011                     244 	.ds	0x0004
   0015                     245 _pvaldec_lval_1_1:
   0015                     246 	.ds	0x0004
                            247 ;--------------------------------------------------------
                            248 ; global & static initialisations
                            249 ;--------------------------------------------------------
                            250 	.area GSINIT (CODE)
                    0000    251 	G$printf_small$0$0 ==.
                            252 ;	printfl.c 215
   0000 C2*00               253 	clr	_long_flag
                    0002    254 	G$printf_small$0$0 ==.
                            255 ;	printfl.c 215
   0002 C2*01               256 	clr	_string_flag
                    0004    257 	G$printf_small$0$0 ==.
                            258 ;	printfl.c 215
   0004 C2*02               259 	clr	_short_flag
                            260 ;--------------------------------------------------------
                            261 ; code
                            262 ;--------------------------------------------------------
                            263 	.area CSEG (CODE)
                    0000    264 	Fprintfl$pvalhex$0$0 ==.
                            265 ;	printfl.c 53
                            266 ;	-----------------------------------------
                            267 ;	 function pvalhex
                            268 ;	-----------------------------------------
   0000                     269 _pvalhex:
                    0002    270 	ar2 = 0x02
                    0003    271 	ar3 = 0x03
                    0004    272 	ar4 = 0x04
                    0005    273 	ar5 = 0x05
                    0006    274 	ar6 = 0x06
                    0007    275 	ar7 = 0x07
                    0000    276 	ar0 = 0x00
                    0001    277 	ar1 = 0x01
                            278 ;	printfl.c 0
   0000 C0 E0               279 	push	acc
   0002 C0 F0               280 	push	b
   0004 C0 83               281 	push	dph
   0006 C0 82               282 	push	dpl
   0008 90s00r00            283 	mov	dptr,#_pvalhex_val_1_1
   000B D0 E0               284 	pop	acc
   000D F0                  285 	movx	@dptr,a
   000E D0 E0               286 	pop	acc
   0010 A3                  287 	inc	dptr
   0011 F0                  288 	movx	@dptr,a
   0012 D0 E0               289 	pop	acc
   0014 A3                  290 	inc	dptr
   0015 F0                  291 	movx	@dptr,a
   0016 D0 E0               292 	pop	acc
   0018 A3                  293 	inc	dptr
   0019 F0                  294 	movx	@dptr,a
                            295 ;	printfl.c 55
   001A 90s00r04            296 	mov	dptr,#_pvalhex_sp_1_1
   001D E5 81               297 	mov	a,_SP
   001F F0                  298 	movx	@dptr,a
                            299 ;	printfl.c 56
   0020 90s00r00            300 	mov	dptr,#_pvalhex_val_1_1
   0023 E0                  301 	movx	a,@dptr
   0024 FA                  302 	mov	r2,a
   0025 A3                  303 	inc	dptr
   0026 E0                  304 	movx	a,@dptr
   0027 FB                  305 	mov	r3,a
   0028 A3                  306 	inc	dptr
   0029 E0                  307 	movx	a,@dptr
   002A FC                  308 	mov	r4,a
   002B A3                  309 	inc	dptr
   002C E0                  310 	movx	a,@dptr
   002D FD                  311 	mov	r5,a
   002E 90s00r05            312 	mov	dptr,#_pvalhex_lval_1_1
   0031 EA                  313 	mov	a,r2
   0032 F0                  314 	movx	@dptr,a
   0033 A3                  315 	inc	dptr
   0034 EB                  316 	mov	a,r3
   0035 F0                  317 	movx	@dptr,a
   0036 A3                  318 	inc	dptr
   0037 EC                  319 	mov	a,r4
   0038 F0                  320 	movx	@dptr,a
   0039 A3                  321 	inc	dptr
   003A ED                  322 	mov	a,r5
   003B F0                  323 	movx	@dptr,a
                            324 ;	printfl.c 58
                            325 ; Peephole 112   removed ljmp by inverse jump logic
   003C 20*00 0D            326 	jb   _long_flag,00102$
   003F                     327 00119$:
                            328 ;	printfl.c 59
   003F 90s00r05            329 	mov	dptr,#_pvalhex_lval_1_1
   0042 EA                  330 	mov	a,r2
   0043 F0                  331 	movx	@dptr,a
   0044 A3                  332 	inc	dptr
   0045 EB                  333 	mov	a,r3
   0046 F0                  334 	movx	@dptr,a
   0047 A3                  335 	inc	dptr
                            336 ; Peephole 101   removed redundant mov
                            337 ; Peephole 180   changed mov to clr
   0048 E4                  338 	clr  a
   0049 F0                  339 	movx @dptr,a
   004A A3                  340 	inc  dptr
   004B F0                  341 	movx @dptr,a
   004C                     342 00102$:
                            343 ;	printfl.c 61
                            344 ; Peephole 111   removed ljmp by inverse jump logic
   004C 30*02 1B            345 	jnb  _short_flag,00116$
   004F                     346 00120$:
                            347 ;	printfl.c 62
   004F 90s00r05            348 	mov	dptr,#_pvalhex_lval_1_1
   0052 E0                  349 	movx	a,@dptr
   0053 FA                  350 	mov	r2,a
   0054 A3                  351 	inc	dptr
   0055 E0                  352 	movx	a,@dptr
   0056 FB                  353 	mov	r3,a
   0057 A3                  354 	inc	dptr
   0058 E0                  355 	movx	a,@dptr
   0059 FC                  356 	mov	r4,a
   005A A3                  357 	inc	dptr
   005B E0                  358 	movx	a,@dptr
   005C FD                  359 	mov	r5,a
   005D 90s00r05            360 	mov	dptr,#_pvalhex_lval_1_1
   0060 EA                  361 	mov	a,r2
   0061 F0                  362 	movx	@dptr,a
   0062 A3                  363 	inc	dptr
                            364 ; Peephole 101   removed redundant mov
                            365 ; Peephole 180   changed mov to clr
   0063 E4                  366 	clr  a
   0064 F0                  367 	movx @dptr,a
   0065 A3                  368 	inc  dptr
   0066 F0                  369 	movx @dptr,a
   0067 A3                  370 	inc	dptr
                            371 ; Peephole 180   changed mov to clr
   0068 E4                  372 	clr  a
   0069 F0                  373 	movx	@dptr,a
                            374 ;	printfl.c 64
   006A                     375 00116$:
   006A                     376 00105$:
   006A 90s00r05            377 	mov	dptr,#_pvalhex_lval_1_1
   006D E0                  378 	movx	a,@dptr
   006E FA                  379 	mov	r2,a
   006F A3                  380 	inc	dptr
   0070 E0                  381 	movx	a,@dptr
   0071 FE                  382 	mov	r6,a
   0072 A3                  383 	inc	dptr
   0073 E0                  384 	movx	a,@dptr
   0074 FF                  385 	mov	r7,a
   0075 A3                  386 	inc	dptr
   0076 E0                  387 	movx	a,@dptr
   0077 F8                  388 	mov	r0,a
   0078 EA                  389 	mov	a,r2
   0079 4E                  390 	orl	a,r6
   007A 4F                  391 	orl	a,r7
   007B 48                  392 	orl	a,r0
   007C 70 03               393 	jnz	00121$
   007E 02s00rC2            394 	ljmp	00108$
   0081                     395 00121$:
                            396 ;	printfl.c 65
   0081 8A 01               397 	mov	ar1,r2
   0083 53 01 0F            398 	anl	ar1,#0x0f
   0086 E9                  399 	mov	a,r1
                            400 ; Peephole 180   changed mov to clr
                            401 ; Peephole 186   optimized movc sequence
   0087 90s05r32            402 	mov  dptr,#__str_0
   008A 93                  403 	movc a,@a+dptr
   008B F5*00               404 	mov	_ch,a
                            405 ;	printfl.c 66
   008D C0*00               406 	 push _ch 
                            407 ;	printfl.c 67
   008F EE                  408 	mov	a,r6
   0090 C4                  409 	swap	a
   0091 CA                  410 	xch	a,r2
   0092 C4                  411 	swap	a
   0093 54 0F               412 	anl	a,#0x0f
   0095 6A                  413 	xrl	a,r2
   0096 CA                  414 	xch	a,r2
   0097 54 0F               415 	anl	a,#0x0f
   0099 CA                  416 	xch	a,r2
   009A 6A                  417 	xrl	a,r2
   009B CA                  418 	xch	a,r2
   009C FE                  419 	mov	r6,a
   009D EF                  420 	mov	a,r7
   009E C4                  421 	swap	a
   009F 54 F0               422 	anl	a,#0xf0
   00A1 4E                  423 	orl	a,r6
   00A2 FE                  424 	mov	r6,a
   00A3 E8                  425 	mov	a,r0
   00A4 C4                  426 	swap	a
   00A5 CF                  427 	xch	a,r7
   00A6 C4                  428 	swap	a
   00A7 54 0F               429 	anl	a,#0x0f
   00A9 6F                  430 	xrl	a,r7
   00AA CF                  431 	xch	a,r7
   00AB 54 0F               432 	anl	a,#0x0f
   00AD CF                  433 	xch	a,r7
   00AE 6F                  434 	xrl	a,r7
   00AF CF                  435 	xch	a,r7
   00B0 F8                  436 	mov	r0,a
   00B1 90s00r05            437 	mov	dptr,#_pvalhex_lval_1_1
   00B4 EA                  438 	mov	a,r2
   00B5 F0                  439 	movx	@dptr,a
   00B6 A3                  440 	inc	dptr
   00B7 EE                  441 	mov	a,r6
   00B8 F0                  442 	movx	@dptr,a
   00B9 A3                  443 	inc	dptr
   00BA EF                  444 	mov	a,r7
   00BB F0                  445 	movx	@dptr,a
   00BC A3                  446 	inc	dptr
   00BD E8                  447 	mov	a,r0
   00BE F0                  448 	movx	@dptr,a
   00BF 02s00r6A            449 	ljmp	00105$
                            450 ;	printfl.c 70
   00C2                     451 00108$:
   00C2 90s00r04            452 	mov	dptr,#_pvalhex_sp_1_1
   00C5 E0                  453 	movx	a,@dptr
                            454 ; Peephole 105   removed redundant mov
   00C6 FA                  455 	mov  r2,a
   00C7 B5 81 02            456 	cjne	a,_SP,00122$
                            457 ; Peephole 132   changed ljmp to sjmp
   00CA 80 0A               458 	sjmp 00111$
   00CC                     459 00122$:
                            460 ;	printfl.c 71
   00CC D0*00               461 	 pop _ch 
                            462 ;	printfl.c 72
   00CE 85*00 82            463 	mov	dpl,_ch
   00D1 12s00r00            464 	lcall	_putchar
                            465 ; Peephole 132   changed ljmp to sjmp
   00D4 80 EC               466 	sjmp 00108$
   00D6                     467 00111$:
                    00D6    468 	C$printfl.c$75$1$1 ==.
                    00D6    469 	XFprintfl$pvalhex$0$0 ==.
   00D6 22                  470 	ret
                    00D7    471 	Fprintfl$pvaloct$0$0 ==.
                            472 ;	printfl.c 77
                            473 ;	-----------------------------------------
                            474 ;	 function pvaloct
                            475 ;	-----------------------------------------
   00D7                     476 _pvaloct:
                            477 ;	printfl.c 0
   00D7 C0 E0               478 	push	acc
   00D9 C0 F0               479 	push	b
   00DB C0 83               480 	push	dph
   00DD C0 82               481 	push	dpl
   00DF 90s00r09            482 	mov	dptr,#_pvaloct_val_1_1
   00E2 D0 E0               483 	pop	acc
   00E4 F0                  484 	movx	@dptr,a
   00E5 D0 E0               485 	pop	acc
   00E7 A3                  486 	inc	dptr
   00E8 F0                  487 	movx	@dptr,a
   00E9 D0 E0               488 	pop	acc
   00EB A3                  489 	inc	dptr
   00EC F0                  490 	movx	@dptr,a
   00ED D0 E0               491 	pop	acc
   00EF A3                  492 	inc	dptr
   00F0 F0                  493 	movx	@dptr,a
                            494 ;	printfl.c 81
                            495 ;	printfl.c 82
   00F1 90s00r09            496 	mov	dptr,#_pvaloct_val_1_1
   00F4 E0                  497 	movx	a,@dptr
   00F5 FB                  498 	mov	r3,a
   00F6 A3                  499 	inc	dptr
   00F7 E0                  500 	movx	a,@dptr
   00F8 FC                  501 	mov	r4,a
   00F9 A3                  502 	inc	dptr
   00FA E0                  503 	movx	a,@dptr
   00FB FD                  504 	mov	r5,a
   00FC A3                  505 	inc	dptr
   00FD E0                  506 	movx	a,@dptr
                            507 ; Peephole 105   removed redundant mov
   00FE FE                  508 	mov  r6,a
                            509 ; Peephole 111   removed ljmp by inverse jump logic
   00FF 30 E7 17            510 	jnb  acc.7,00102$
   0102                     511 00126$:
                            512 ;	printfl.c 83
   0102 90s00r0D            513 	mov	dptr,#_pvaloct_lval_1_1
   0105 C3                  514 	clr	c
   0106 E4                  515 	clr	a
   0107 9B                  516 	subb	a,r3
   0108 F0                  517 	movx	@dptr,a
   0109 E4                  518 	clr	a
   010A 9C                  519 	subb	a,r4
   010B A3                  520 	inc	dptr
   010C F0                  521 	movx	@dptr,a
   010D E4                  522 	clr	a
   010E 9D                  523 	subb	a,r5
   010F A3                  524 	inc	dptr
   0110 F0                  525 	movx	@dptr,a
   0111 E4                  526 	clr	a
   0112 9E                  527 	subb	a,r6
   0113 A3                  528 	inc	dptr
   0114 F0                  529 	movx	@dptr,a
                            530 ;	printfl.c 84
   0115 D2*03               531 	setb	_sign
                            532 ; Peephole 132   changed ljmp to sjmp
   0117 80 10               533 	sjmp 00103$
   0119                     534 00102$:
                            535 ;	printfl.c 86
   0119 90s00r0D            536 	mov	dptr,#_pvaloct_lval_1_1
   011C EB                  537 	mov	a,r3
   011D F0                  538 	movx	@dptr,a
   011E A3                  539 	inc	dptr
   011F EC                  540 	mov	a,r4
   0120 F0                  541 	movx	@dptr,a
   0121 A3                  542 	inc	dptr
   0122 ED                  543 	mov	a,r5
   0123 F0                  544 	movx	@dptr,a
   0124 A3                  545 	inc	dptr
   0125 EE                  546 	mov	a,r6
   0126 F0                  547 	movx	@dptr,a
                            548 ;	printfl.c 87
   0127 C2*03               549 	clr	_sign
   0129                     550 00103$:
                            551 ;	printfl.c 90
                            552 ; Peephole 112   removed ljmp by inverse jump logic
   0129 20*00 1B            553 	jb   _long_flag,00105$
   012C                     554 00127$:
                            555 ;	printfl.c 91
   012C 90s00r0D            556 	mov	dptr,#_pvaloct_lval_1_1
   012F E0                  557 	movx	a,@dptr
   0130 FB                  558 	mov	r3,a
   0131 A3                  559 	inc	dptr
   0132 E0                  560 	movx	a,@dptr
   0133 FC                  561 	mov	r4,a
   0134 A3                  562 	inc	dptr
   0135 E0                  563 	movx	a,@dptr
   0136 FD                  564 	mov	r5,a
   0137 A3                  565 	inc	dptr
   0138 E0                  566 	movx	a,@dptr
   0139 FE                  567 	mov	r6,a
   013A 90s00r0D            568 	mov	dptr,#_pvaloct_lval_1_1
   013D EB                  569 	mov	a,r3
   013E F0                  570 	movx	@dptr,a
   013F A3                  571 	inc	dptr
   0140 EC                  572 	mov	a,r4
   0141 F0                  573 	movx	@dptr,a
   0142 A3                  574 	inc	dptr
                            575 ; Peephole 101   removed redundant mov
                            576 ; Peephole 180   changed mov to clr
   0143 E4                  577 	clr  a
   0144 F0                  578 	movx @dptr,a
   0145 A3                  579 	inc  dptr
   0146 F0                  580 	movx @dptr,a
   0147                     581 00105$:
                            582 ;	printfl.c 92
                            583 ; Peephole 111   removed ljmp by inverse jump logic
   0147 30*02 1B            584 	jnb  _short_flag,00108$
   014A                     585 00128$:
                            586 ;	printfl.c 93
   014A 90s00r0D            587 	mov	dptr,#_pvaloct_lval_1_1
   014D E0                  588 	movx	a,@dptr
   014E FB                  589 	mov	r3,a
   014F A3                  590 	inc	dptr
   0150 E0                  591 	movx	a,@dptr
   0151 FC                  592 	mov	r4,a
   0152 A3                  593 	inc	dptr
   0153 E0                  594 	movx	a,@dptr
   0154 FD                  595 	mov	r5,a
   0155 A3                  596 	inc	dptr
   0156 E0                  597 	movx	a,@dptr
   0157 FE                  598 	mov	r6,a
   0158 90s00r0D            599 	mov	dptr,#_pvaloct_lval_1_1
   015B EB                  600 	mov	a,r3
   015C F0                  601 	movx	@dptr,a
   015D A3                  602 	inc	dptr
                            603 ; Peephole 101   removed redundant mov
                            604 ; Peephole 180   changed mov to clr
   015E E4                  605 	clr  a
   015F F0                  606 	movx @dptr,a
   0160 A3                  607 	inc  dptr
   0161 F0                  608 	movx @dptr,a
   0162 A3                  609 	inc	dptr
                            610 ; Peephole 180   changed mov to clr
   0163 E4                  611 	clr  a
   0164 F0                  612 	movx	@dptr,a
                            613 ;	printfl.c 95
   0165                     614 00108$:
   0165 90s00r0D            615 	mov	dptr,#_pvaloct_lval_1_1
   0168 E0                  616 	movx	a,@dptr
   0169 F5*09               617 	mov	_pvaloct_sloc0_1_0,a
   016B A3                  618 	inc	dptr
   016C E0                  619 	movx	a,@dptr
   016D F5*0A               620 	mov	(_pvaloct_sloc0_1_0 + 1),a
   016F A3                  621 	inc	dptr
   0170 E0                  622 	movx	a,@dptr
   0171 F5*0B               623 	mov	(_pvaloct_sloc0_1_0 + 2),a
   0173 A3                  624 	inc	dptr
   0174 E0                  625 	movx	a,@dptr
   0175 F5*0C               626 	mov	(_pvaloct_sloc0_1_0 + 3),a
   0177 E5*09               627 	mov	a,_pvaloct_sloc0_1_0
   0179 45*0A               628 	orl	a,(_pvaloct_sloc0_1_0 + 1)
   017B 45*0B               629 	orl	a,(_pvaloct_sloc0_1_0 + 2)
   017D 45*0C               630 	orl	a,(_pvaloct_sloc0_1_0 + 3)
   017F 70 03               631 	jnz	00129$
   0181 02s01rFF            632 	ljmp	00110$
   0184                     633 00129$:
                            634 ;	printfl.c 96
   0184 90s00r00            635 	mov	dptr,#__modulong_PARM_2
   0187 E4                  636 	clr	a
   0188 A3                  637 	inc	dptr
   0189 A3                  638 	inc	dptr
   018A A3                  639 	inc	dptr
   018B F0                  640 	movx	@dptr,a
   018C 12s00r00            641 	lcall	__decdptr
   018F F0                  642 	movx	@dptr,a
   0190 12s00r00            643 	lcall	__decdptr
   0193 F0                  644 	movx	@dptr,a
   0194 12s00r00            645 	lcall	__decdptr
   0197 74 08               646 	mov	a,#0x08
   0199 F0                  647 	movx	@dptr,a
   019A 85*09 82            648 	mov	dpl,_pvaloct_sloc0_1_0
   019D 85*0A 83            649 	mov	dph,(_pvaloct_sloc0_1_0 + 1)
   01A0 85*0B F0            650 	mov	b,(_pvaloct_sloc0_1_0 + 2)
   01A3 E5*0C               651 	mov	a,(_pvaloct_sloc0_1_0 + 3)
   01A5 12s00r00            652 	lcall	__modulong
   01A8 AA 82               653 	mov	r2,dpl
   01AA AB 83               654 	mov	r3,dph
   01AC AF F0               655 	mov	r7,b
   01AE F8                  656 	mov	r0,a
   01AF 74 30               657 	mov	a,#0x30
   01B1 2A                  658 	add	a,r2
   01B2 FA                  659 	mov	r2,a
                            660 ; Peephole 180   changed mov to clr
   01B3 E4                  661 	clr  a
   01B4 3B                  662 	addc	a,r3
   01B5 FB                  663 	mov	r3,a
                            664 ; Peephole 180   changed mov to clr
   01B6 E4                  665 	clr  a
   01B7 3F                  666 	addc	a,r7
   01B8 FF                  667 	mov	r7,a
                            668 ; Peephole 180   changed mov to clr
   01B9 E4                  669 	clr  a
   01BA 38                  670 	addc	a,r0
   01BB F8                  671 	mov	r0,a
   01BC 8A*00               672 	mov	_ch,r2
                            673 ;	printfl.c 97
   01BE C0*00               674 	 push _ch 
                            675 ;	printfl.c 98
   01C0 AA*09               676 	mov	r2,_pvaloct_sloc0_1_0
   01C2 E5*0A               677 	mov	a,(_pvaloct_sloc0_1_0 + 1)
   01C4 C4                  678 	swap	a
   01C5 23                  679 	rl	a
   01C6 CA                  680 	xch	a,r2
   01C7 C4                  681 	swap	a
   01C8 23                  682 	rl	a
   01C9 54 1F               683 	anl	a,#0x1f
   01CB 6A                  684 	xrl	a,r2
   01CC CA                  685 	xch	a,r2
   01CD 54 1F               686 	anl	a,#0x1f
   01CF CA                  687 	xch	a,r2
   01D0 6A                  688 	xrl	a,r2
   01D1 CA                  689 	xch	a,r2
   01D2 FB                  690 	mov	r3,a
   01D3 E5*0B               691 	mov	a,(_pvaloct_sloc0_1_0 + 2)
   01D5 C4                  692 	swap	a
   01D6 23                  693 	rl	a
   01D7 54 E0               694 	anl	a,#0xe0
   01D9 4B                  695 	orl	a,r3
   01DA FB                  696 	mov	r3,a
   01DB AF*0B               697 	mov	r7,(_pvaloct_sloc0_1_0 + 2)
   01DD E5*0C               698 	mov	a,(_pvaloct_sloc0_1_0 + 3)
   01DF C4                  699 	swap	a
   01E0 23                  700 	rl	a
   01E1 CF                  701 	xch	a,r7
   01E2 C4                  702 	swap	a
   01E3 23                  703 	rl	a
   01E4 54 1F               704 	anl	a,#0x1f
   01E6 6F                  705 	xrl	a,r7
   01E7 CF                  706 	xch	a,r7
   01E8 54 1F               707 	anl	a,#0x1f
   01EA CF                  708 	xch	a,r7
   01EB 6F                  709 	xrl	a,r7
   01EC CF                  710 	xch	a,r7
   01ED F8                  711 	mov	r0,a
   01EE 90s00r0D            712 	mov	dptr,#_pvaloct_lval_1_1
   01F1 EA                  713 	mov	a,r2
   01F2 F0                  714 	movx	@dptr,a
   01F3 A3                  715 	inc	dptr
   01F4 EB                  716 	mov	a,r3
   01F5 F0                  717 	movx	@dptr,a
   01F6 A3                  718 	inc	dptr
   01F7 EF                  719 	mov	a,r7
   01F8 F0                  720 	movx	@dptr,a
   01F9 A3                  721 	inc	dptr
   01FA E8                  722 	mov	a,r0
   01FB F0                  723 	movx	@dptr,a
   01FC 02s01r65            724 	ljmp	00108$
   01FF                     725 00110$:
                            726 ;	printfl.c 101
                            727 ; Peephole 111   removed ljmp by inverse jump logic
   01FF 30*03 05            728 	jnb  _sign,00113$
   0202                     729 00130$:
                            730 ;	printfl.c 102
   0202 75*00 2D            731 	mov	_ch,#0x2d
                            732 ;	printfl.c 103
   0205 C0*00               733 	 push _ch 
                            734 ;	printfl.c 107
   0207                     735 00113$:
   0207 E5 81               736 	mov	a,_SP
   0209 B5 81 02            737 	cjne	a,_SP,00131$
                            738 ; Peephole 132   changed ljmp to sjmp
   020C 80 0A               739 	sjmp 00116$
   020E                     740 00131$:
                            741 ;	printfl.c 108
   020E D0*00               742 	 pop _ch 
                            743 ;	printfl.c 109
   0210 85*00 82            744 	mov	dpl,_ch
   0213 12s00r00            745 	lcall	_putchar
                            746 ; Peephole 132   changed ljmp to sjmp
   0216 80 EF               747 	sjmp 00113$
   0218                     748 00116$:
                    0218    749 	C$printfl.c$111$1$1 ==.
                    0218    750 	XFprintfl$pvaloct$0$0 ==.
   0218 22                  751 	ret
                    0219    752 	Fprintfl$pvaldec$0$0 ==.
                            753 ;	printfl.c 113
                            754 ;	-----------------------------------------
                            755 ;	 function pvaldec
                            756 ;	-----------------------------------------
   0219                     757 _pvaldec:
                            758 ;	printfl.c 0
   0219 C0 E0               759 	push	acc
   021B C0 F0               760 	push	b
   021D C0 83               761 	push	dph
   021F C0 82               762 	push	dpl
   0221 90s00r11            763 	mov	dptr,#_pvaldec_val_1_1
   0224 D0 E0               764 	pop	acc
   0226 F0                  765 	movx	@dptr,a
   0227 D0 E0               766 	pop	acc
   0229 A3                  767 	inc	dptr
   022A F0                  768 	movx	@dptr,a
   022B D0 E0               769 	pop	acc
   022D A3                  770 	inc	dptr
   022E F0                  771 	movx	@dptr,a
   022F D0 E0               772 	pop	acc
   0231 A3                  773 	inc	dptr
   0232 F0                  774 	movx	@dptr,a
                            775 ;	printfl.c 117
                            776 ;	printfl.c 118
   0233 90s00r11            777 	mov	dptr,#_pvaldec_val_1_1
   0236 E0                  778 	movx	a,@dptr
   0237 FB                  779 	mov	r3,a
   0238 A3                  780 	inc	dptr
   0239 E0                  781 	movx	a,@dptr
   023A FC                  782 	mov	r4,a
   023B A3                  783 	inc	dptr
   023C E0                  784 	movx	a,@dptr
   023D FD                  785 	mov	r5,a
   023E A3                  786 	inc	dptr
   023F E0                  787 	movx	a,@dptr
                            788 ; Peephole 105   removed redundant mov
   0240 FE                  789 	mov  r6,a
                            790 ; Peephole 111   removed ljmp by inverse jump logic
   0241 30 E7 17            791 	jnb  acc.7,00102$
   0244                     792 00120$:
                            793 ;	printfl.c 119
   0244 90s00r15            794 	mov	dptr,#_pvaldec_lval_1_1
   0247 C3                  795 	clr	c
   0248 E4                  796 	clr	a
   0249 9B                  797 	subb	a,r3
   024A F0                  798 	movx	@dptr,a
   024B E4                  799 	clr	a
   024C 9C                  800 	subb	a,r4
   024D A3                  801 	inc	dptr
   024E F0                  802 	movx	@dptr,a
   024F E4                  803 	clr	a
   0250 9D                  804 	subb	a,r5
   0251 A3                  805 	inc	dptr
   0252 F0                  806 	movx	@dptr,a
   0253 E4                  807 	clr	a
   0254 9E                  808 	subb	a,r6
   0255 A3                  809 	inc	dptr
   0256 F0                  810 	movx	@dptr,a
                            811 ;	printfl.c 120
   0257 D2*03               812 	setb	_sign
                            813 ; Peephole 132   changed ljmp to sjmp
   0259 80 10               814 	sjmp 00104$
   025B                     815 00102$:
                            816 ;	printfl.c 122
   025B 90s00r15            817 	mov	dptr,#_pvaldec_lval_1_1
   025E EB                  818 	mov	a,r3
   025F F0                  819 	movx	@dptr,a
   0260 A3                  820 	inc	dptr
   0261 EC                  821 	mov	a,r4
   0262 F0                  822 	movx	@dptr,a
   0263 A3                  823 	inc	dptr
   0264 ED                  824 	mov	a,r5
   0265 F0                  825 	movx	@dptr,a
   0266 A3                  826 	inc	dptr
   0267 EE                  827 	mov	a,r6
   0268 F0                  828 	movx	@dptr,a
                            829 ;	printfl.c 123
   0269 C2*03               830 	clr	_sign
                            831 ;	printfl.c 126
   026B                     832 00104$:
   026B 90s00r15            833 	mov	dptr,#_pvaldec_lval_1_1
   026E E0                  834 	movx	a,@dptr
   026F FB                  835 	mov	r3,a
   0270 A3                  836 	inc	dptr
   0271 E0                  837 	movx	a,@dptr
   0272 FC                  838 	mov	r4,a
   0273 A3                  839 	inc	dptr
   0274 E0                  840 	movx	a,@dptr
   0275 FD                  841 	mov	r5,a
   0276 A3                  842 	inc	dptr
   0277 E0                  843 	movx	a,@dptr
   0278 FE                  844 	mov	r6,a
   0279 EB                  845 	mov	a,r3
   027A 4C                  846 	orl	a,r4
   027B 4D                  847 	orl	a,r5
   027C 4E                  848 	orl	a,r6
   027D 70 03               849 	jnz	00121$
   027F 02s03r02            850 	ljmp	00106$
   0282                     851 00121$:
                            852 ;	printfl.c 127
   0282 90s00r00            853 	mov	dptr,#__modulong_PARM_2
   0285 E4                  854 	clr	a
   0286 A3                  855 	inc	dptr
   0287 A3                  856 	inc	dptr
   0288 A3                  857 	inc	dptr
   0289 F0                  858 	movx	@dptr,a
   028A 12s00r00            859 	lcall	__decdptr
   028D F0                  860 	movx	@dptr,a
   028E 12s00r00            861 	lcall	__decdptr
   0291 F0                  862 	movx	@dptr,a
   0292 12s00r00            863 	lcall	__decdptr
   0295 74 0A               864 	mov	a,#0x0a
   0297 F0                  865 	movx	@dptr,a
   0298 C0 03               866 	push	ar3
   029A C0 04               867 	push	ar4
   029C C0 05               868 	push	ar5
   029E C0 06               869 	push	ar6
   02A0 8B 82               870 	mov	dpl,r3
   02A2 8C 83               871 	mov	dph,r4
   02A4 8D F0               872 	mov	b,r5
   02A6 EE                  873 	mov	a,r6
   02A7 12s00r00            874 	lcall	__modulong
   02AA AF 82               875 	mov	r7,dpl
   02AC A8 83               876 	mov	r0,dph
   02AE A9 F0               877 	mov	r1,b
   02B0 FA                  878 	mov	r2,a
   02B1 D0 06               879 	pop	ar6
   02B3 D0 05               880 	pop	ar5
   02B5 D0 04               881 	pop	ar4
   02B7 D0 03               882 	pop	ar3
   02B9 74 30               883 	mov	a,#0x30
   02BB 2F                  884 	add	a,r7
   02BC FF                  885 	mov	r7,a
                            886 ; Peephole 180   changed mov to clr
   02BD E4                  887 	clr  a
   02BE 38                  888 	addc	a,r0
   02BF F8                  889 	mov	r0,a
                            890 ; Peephole 180   changed mov to clr
   02C0 E4                  891 	clr  a
   02C1 39                  892 	addc	a,r1
   02C2 F9                  893 	mov	r1,a
                            894 ; Peephole 180   changed mov to clr
   02C3 E4                  895 	clr  a
   02C4 3A                  896 	addc	a,r2
   02C5 FA                  897 	mov	r2,a
   02C6 8F*00               898 	mov	_ch,r7
                            899 ;	printfl.c 128
   02C8 C0*00               900 	 push _ch 
                            901 ;	printfl.c 129
   02CA 90s00r00            902 	mov	dptr,#__divulong_PARM_2
   02CD E4                  903 	clr	a
   02CE A3                  904 	inc	dptr
   02CF A3                  905 	inc	dptr
   02D0 A3                  906 	inc	dptr
   02D1 F0                  907 	movx	@dptr,a
   02D2 12s00r00            908 	lcall	__decdptr
   02D5 F0                  909 	movx	@dptr,a
   02D6 12s00r00            910 	lcall	__decdptr
   02D9 F0                  911 	movx	@dptr,a
   02DA 12s00r00            912 	lcall	__decdptr
   02DD 74 0A               913 	mov	a,#0x0a
   02DF F0                  914 	movx	@dptr,a
   02E0 8B 82               915 	mov	dpl,r3
   02E2 8C 83               916 	mov	dph,r4
   02E4 8D F0               917 	mov	b,r5
   02E6 EE                  918 	mov	a,r6
   02E7 12s00r00            919 	lcall	__divulong
   02EA AA 82               920 	mov	r2,dpl
   02EC AB 83               921 	mov	r3,dph
   02EE AC F0               922 	mov	r4,b
   02F0 FD                  923 	mov	r5,a
   02F1 90s00r15            924 	mov	dptr,#_pvaldec_lval_1_1
   02F4 EA                  925 	mov	a,r2
   02F5 F0                  926 	movx	@dptr,a
   02F6 A3                  927 	inc	dptr
   02F7 EB                  928 	mov	a,r3
   02F8 F0                  929 	movx	@dptr,a
   02F9 A3                  930 	inc	dptr
   02FA EC                  931 	mov	a,r4
   02FB F0                  932 	movx	@dptr,a
   02FC A3                  933 	inc	dptr
   02FD ED                  934 	mov	a,r5
   02FE F0                  935 	movx	@dptr,a
   02FF 02s02r6B            936 	ljmp	00104$
   0302                     937 00106$:
                            938 ;	printfl.c 132
                            939 ; Peephole 111   removed ljmp by inverse jump logic
   0302 30*03 05            940 	jnb  _sign,00109$
   0305                     941 00122$:
                            942 ;	printfl.c 133
   0305 75*00 2D            943 	mov	_ch,#0x2d
                            944 ;	printfl.c 134
   0308 C0*00               945 	 push _ch 
                            946 ;	printfl.c 138
   030A                     947 00109$:
   030A E5 81               948 	mov	a,_SP
   030C B5 81 02            949 	cjne	a,_SP,00123$
                            950 ; Peephole 132   changed ljmp to sjmp
   030F 80 0A               951 	sjmp 00112$
   0311                     952 00123$:
                            953 ;	printfl.c 139
   0311 D0*00               954 	 pop _ch 
                            955 ;	printfl.c 140
   0313 85*00 82            956 	mov	dpl,_ch
   0316 12s00r00            957 	lcall	_putchar
                            958 ; Peephole 132   changed ljmp to sjmp
   0319 80 EF               959 	sjmp 00109$
   031B                     960 00112$:
                    031B    961 	C$printfl.c$142$1$1 ==.
                    031B    962 	XFprintfl$pvaldec$0$0 ==.
   031B 22                  963 	ret
                    031C    964 	G$printf_small$0$0 ==.
                            965 ;	printfl.c 144
                            966 ;	-----------------------------------------
                            967 ;	 function printf_small
                            968 ;	-----------------------------------------
   031C                     969 _printf_small:
   031C C0*00               970 	push	_bp
   031E 85 81*00            971 	mov	_bp,sp
   0321 05 81               972 	inc	sp
                            973 ;	printfl.c 148
   0323 E5*00               974 	mov	a,_bp
   0325 24 FB               975 	add	a,#0xfb
   0327 FA                  976 	mov	r2,a
                            977 ; Peephole 3.c   changed mov to clr
   0328 E4                  978 	clr  a
   0329 FB                  979 	mov  r3,a
   032A FC                  980 	mov  r4,a
                            981 ; Peephole 212  reduced add sequence to inc
   032B A8*00               982 	mov  r0,_bp
   032D 08                  983 	inc  r0
   032E A6 02               984 	mov	@r0,ar2
   0330                     985 00129$:
                            986 ;	printfl.c 150
   0330 E5*00               987 	mov	a,_bp
   0332 24 FB               988 	add	a,#0xfb
   0334 F8                  989 	mov	r0,a
   0335 86 03               990 	mov	ar3,@r0
   0337 08                  991 	inc	r0
   0338 86 04               992 	mov	ar4,@r0
   033A 08                  993 	inc	r0
   033B 86 05               994 	mov	ar5,@r0
   033D 8B 82               995 	mov	dpl,r3
   033F 8C 83               996 	mov	dph,r4
   0341 8D F0               997 	mov	b,r5
   0343 12s00r00            998 	lcall	__gptrget
                            999 ; Peephole 105   removed redundant mov
   0346 FE                 1000 	mov  r6,a
   0347 70 03              1001 	jnz	00154$
   0349 02s05r2C           1002 	ljmp	00133$
   034C                    1003 00154$:
                           1004 ;	printfl.c 151
   034C BE 25 02           1005 	cjne	r6,#0x25,00155$
   034F 80 03              1006 	sjmp	00156$
   0351                    1007 00155$:
   0351 02s05r19           1008 	ljmp	00127$
   0354                    1009 00156$:
                           1010 ;	printfl.c 152
   0354 C2*02              1011 	clr	_short_flag
   0356 C2*01              1012 	clr	_string_flag
   0358 C2*00              1013 	clr	_long_flag
                           1014 ;	printfl.c 153
   035A 0B                 1015 	inc	r3
   035B BB 00 01           1016 	cjne	r3,#0x00,00157$
   035E 0C                 1017 	inc	r4
   035F                    1018 00157$:
   035F E5*00              1019 	mov	a,_bp
   0361 24 FB              1020 	add	a,#0xfb
   0363 F8                 1021 	mov	r0,a
   0364 A6 03              1022 	mov	@r0,ar3
   0366 08                 1023 	inc	r0
   0367 A6 04              1024 	mov	@r0,ar4
   0369 08                 1025 	inc	r0
   036A A6 05              1026 	mov	@r0,ar5
                           1027 ;	printfl.c 154
   036C 8B 82              1028 	mov	dpl,r3
   036E 8C 83              1029 	mov	dph,r4
   0370 8D F0              1030 	mov	b,r5
   0372 12s00r00           1031 	lcall	__gptrget
   0375 FF                 1032 	mov	r7,a
   0376 BF 68 02           1033 	cjne	r7,#0x68,00158$
                           1034 ; Peephole 132   changed ljmp to sjmp
   0379 80 17              1035 	sjmp 00102$
   037B                    1036 00158$:
                           1037 ; Peephole 132   changed ljmp to sjmp
                           1038 ; Peephole 199   optimized misc jump sequence
   037B BF 6C 26           1039 	cjne r7,#0x6c,00103$
                           1040 ; Peephole 201   removed redundant sjmp
   037E                    1041 00159$:
   037E                    1042 00160$:
                           1043 ;	printfl.c 156
   037E D2*00              1044 	setb	_long_flag
                           1045 ;	printfl.c 157
   0380 E5*00              1046 	mov	a,_bp
   0382 24 FB              1047 	add	a,#0xfb
   0384 F8                 1048 	mov	r0,a
   0385 74 01              1049 	mov	a,#0x01
   0387 2B                 1050 	add	a,r3
   0388 F6                 1051 	mov	@r0,a
                           1052 ; Peephole 180   changed mov to clr
   0389 E4                 1053 	clr  a
   038A 3C                 1054 	addc	a,r4
   038B 08                 1055 	inc	r0
   038C F6                 1056 	mov	@r0,a
   038D 08                 1057 	inc	r0
   038E A6 05              1058 	mov	@r0,ar5
                           1059 ;	printfl.c 158
                           1060 ;	printfl.c 160
                           1061 ; Peephole 132   changed ljmp to sjmp
   0390 80 12              1062 	sjmp 00103$
   0392                    1063 00102$:
   0392 D2*02              1064 	setb	_short_flag
                           1065 ;	printfl.c 161
   0394 E5*00              1066 	mov	a,_bp
   0396 24 FB              1067 	add	a,#0xfb
   0398 F8                 1068 	mov	r0,a
   0399 74 01              1069 	mov	a,#0x01
   039B 2B                 1070 	add	a,r3
   039C F6                 1071 	mov	@r0,a
                           1072 ; Peephole 180   changed mov to clr
   039D E4                 1073 	clr  a
   039E 3C                 1074 	addc	a,r4
   039F 08                 1075 	inc	r0
   03A0 F6                 1076 	mov	@r0,a
   03A1 08                 1077 	inc	r0
   03A2 A6 05              1078 	mov	@r0,ar5
                           1079 ;	printfl.c 162
   03A4                    1080 00103$:
                           1081 ;	printfl.c 164
   03A4 E5*00              1082 	mov	a,_bp
   03A6 24 FB              1083 	add	a,#0xfb
   03A8 F8                 1084 	mov	r0,a
   03A9 86 03              1085 	mov	ar3,@r0
   03AB 08                 1086 	inc	r0
   03AC 86 04              1087 	mov	ar4,@r0
   03AE 08                 1088 	inc	r0
   03AF 86 05              1089 	mov	ar5,@r0
   03B1 8B 82              1090 	mov	dpl,r3
   03B3 8C 83              1091 	mov	dph,r4
   03B5 8D F0              1092 	mov	b,r5
   03B7 12s00r00           1093 	lcall	__gptrget
   03BA FB                 1094 	mov	r3,a
   03BB BB 63 02           1095 	cjne	r3,#0x63,00161$
                           1096 ; Peephole 132   changed ljmp to sjmp
   03BE 80 22              1097 	sjmp 00107$
   03C0                    1098 00161$:
   03C0 BB 64 02           1099 	cjne	r3,#0x64,00162$
                           1100 ; Peephole 132   changed ljmp to sjmp
   03C3 80 13              1101 	sjmp 00105$
   03C5                    1102 00162$:
   03C5 BB 6F 02           1103 	cjne	r3,#0x6f,00163$
                           1104 ; Peephole 132   changed ljmp to sjmp
   03C8 80 1D              1105 	sjmp 00108$
   03CA                    1106 00163$:
   03CA BB 73 02           1107 	cjne	r3,#0x73,00164$
                           1108 ; Peephole 132   changed ljmp to sjmp
   03CD 80 05              1109 	sjmp 00104$
   03CF                    1110 00164$:
                           1111 ; Peephole 132   changed ljmp to sjmp
                           1112 ;	printfl.c 166
                           1113 ; Peephole 132   changed ljmp to sjmp
                           1114 ; Peephole 199   optimized misc jump sequence
   03CF BB 78 18           1115 	cjne r3,#0x78,00109$
   03D2 80 09              1116 	sjmp 00106$
   03D4                    1117 00165$:
   03D4                    1118 00104$:
   03D4 D2*01              1119 	setb	_string_flag
                           1120 ;	printfl.c 167
                           1121 ;	printfl.c 169
                           1122 ; Peephole 132   changed ljmp to sjmp
   03D6 80 12              1123 	sjmp 00109$
   03D8                    1124 00105$:
   03D8 75*01 0A           1125 	mov	_radix,#0x0a
                           1126 ;	printfl.c 170
                           1127 ;	printfl.c 172
                           1128 ; Peephole 132   changed ljmp to sjmp
   03DB 80 0D              1129 	sjmp 00109$
   03DD                    1130 00106$:
   03DD 75*01 10           1131 	mov	_radix,#0x10
                           1132 ;	printfl.c 173
                           1133 ;	printfl.c 175
                           1134 ; Peephole 132   changed ljmp to sjmp
   03E0 80 08              1135 	sjmp 00109$
   03E2                    1136 00107$:
   03E2 75*01 00           1137 	mov	_radix,#0x00
                           1138 ;	printfl.c 176
                           1139 ;	printfl.c 178
                           1140 ; Peephole 132   changed ljmp to sjmp
   03E5 80 03              1141 	sjmp 00109$
   03E7                    1142 00108$:
   03E7 75*01 08           1143 	mov	_radix,#0x08
                           1144 ;	printfl.c 180
   03EA                    1145 00109$:
                           1146 ;	printfl.c 182
   03EA 20*01 03           1147 	jb	_string_flag,00166$
   03ED 02s04r5B           1148 	ljmp	00114$
   03F0                    1149 00166$:
                           1150 ;	printfl.c 183
                           1151 ; Peephole 212  reduced add sequence to inc
   03F0 A9*00              1152 	mov  r1,_bp
   03F2 09                 1153 	inc  r1
   03F3 E7                 1154 	mov	a,@r1
   03F4 24 FD              1155 	add	a,#0xfd
   03F6 F8                 1156 	mov	r0,a
                           1157 ; Peephole 212  reduced add sequence to inc
   03F7 A9*00              1158 	mov  r1,_bp
   03F9 09                 1159 	inc  r1
   03FA A7 00              1160 	mov	@r1,ar0
   03FC 86*02              1161 	mov	_str,@r0
   03FE 08                 1162 	inc	r0
   03FF 86*03              1163 	mov	(_str + 1),@r0
   0401 08                 1164 	inc	r0
   0402 86*04              1165 	mov	(_str + 2),@r0
   0404 18                 1166 	dec	r0
   0405 18                 1167 	dec	r0
                           1168 ;	printfl.c 184
   0406                    1169 00110$:
   0406 85*02*0E           1170 	mov	_printf_small_sloc1_1_0,_str
   0409 85*03*0F           1171 	mov	(_printf_small_sloc1_1_0 + 1),(_str + 1)
   040C 85*04*10           1172 	mov	(_printf_small_sloc1_1_0 + 2),(_str + 2)
   040F 85*0E 82           1173 	mov	dpl,_printf_small_sloc1_1_0
   0412 85*0F 83           1174 	mov	dph,(_printf_small_sloc1_1_0 + 1)
   0415 85*10 F0           1175 	mov	b,(_printf_small_sloc1_1_0 + 2)
   0418 12s00r00           1176 	lcall	__gptrget
                           1177 ; Peephole 105   removed redundant mov
   041B F5*0D              1178 	mov  _printf_small_sloc0_1_0,a
   041D 70 03              1179 	jnz	00167$
   041F 02s05r1E           1180 	ljmp	00131$
   0422                    1181 00167$:
   0422 85*02 82           1182 	mov	dpl,_str
   0425 85*03 83           1183 	mov	dph,(_str + 1)
   0428 85*04 F0           1184 	mov	b,(_str + 2)
   042B 74 01              1185 	mov	a,#0x01
   042D 25*02              1186 	add	a,_str
   042F FA                 1187 	mov	r2,a
                           1188 ; Peephole 180   changed mov to clr
   0430 E4                 1189 	clr  a
   0431 35*03              1190 	addc	a,(_str + 1)
   0433 FF                 1191 	mov	r7,a
   0434 AB*04              1192 	mov	r3,(_str + 2)
   0436 8A*02              1193 	mov	_str,r2
   0438 8F*03              1194 	mov	(_str + 1),r7
   043A 8B*04              1195 	mov	(_str + 2),r3
   043C 12s00r00           1196 	lcall	__gptrget
   043F FC                 1197 	mov	r4,a
   0440 C0 02              1198 	push	ar2
   0442 C0 03              1199 	push	ar3
   0444 C0 04              1200 	push	ar4
   0446 C0 06              1201 	push	ar6
   0448 C0 07              1202 	push	ar7
   044A 8C 82              1203 	mov	dpl,r4
   044C 12s00r00           1204 	lcall	_putchar
   044F D0 07              1205 	pop	ar7
   0451 D0 06              1206 	pop	ar6
   0453 D0 04              1207 	pop	ar4
   0455 D0 03              1208 	pop	ar3
   0457 D0 02              1209 	pop	ar2
                           1210 ;	printfl.c 185
                           1211 ; Peephole 132   changed ljmp to sjmp
   0459 80 AB              1212 	sjmp 00110$
   045B                    1213 00114$:
                           1214 ;	printfl.c 188
                           1215 ; Peephole 111   removed ljmp by inverse jump logic
   045B 30*00 1C           1216 	jnb  _long_flag,00119$
   045E                    1217 00168$:
                           1218 ;	printfl.c 189
                           1219 ; Peephole 212  reduced add sequence to inc
   045E A9*00              1220 	mov  r1,_bp
   0460 09                 1221 	inc  r1
   0461 E7                 1222 	mov	a,@r1
   0462 24 FC              1223 	add	a,#0xfc
   0464 F8                 1224 	mov	r0,a
                           1225 ; Peephole 212  reduced add sequence to inc
   0465 A9*00              1226 	mov  r1,_bp
   0467 09                 1227 	inc  r1
   0468 A7 00              1228 	mov	@r1,ar0
   046A 86*05              1229 	mov	_val,@r0
   046C 08                 1230 	inc	r0
   046D 86*06              1231 	mov	(_val + 1),@r0
   046F 08                 1232 	inc	r0
   0470 86*07              1233 	mov	(_val + 2),@r0
   0472 08                 1234 	inc	r0
   0473 86*08              1235 	mov	(_val + 3),@r0
   0475 18                 1236 	dec	r0
   0476 18                 1237 	dec	r0
   0477 18                 1238 	dec	r0
                           1239 ; Peephole 132   changed ljmp to sjmp
   0478 80 3D              1240 	sjmp 00120$
   047A                    1241 00119$:
                           1242 ;	printfl.c 191
                           1243 ; Peephole 111   removed ljmp by inverse jump logic
   047A 30*02 1C           1244 	jnb  _short_flag,00116$
   047D                    1245 00169$:
                           1246 ;	printfl.c 192
                           1247 ; Peephole 212  reduced add sequence to inc
   047D A9*00              1248 	mov  r1,_bp
   047F 09                 1249 	inc  r1
   0480 E7                 1250 	mov	a,@r1
   0481 24 FF              1251 	add	a,#0xff
   0483 F8                 1252 	mov	r0,a
                           1253 ; Peephole 212  reduced add sequence to inc
   0484 A9*00              1254 	mov  r1,_bp
   0486 09                 1255 	inc  r1
   0487 A7 00              1256 	mov	@r1,ar0
   0489 86 02              1257 	mov	ar2,@r0
   048B 8A*05              1258 	mov	_val,r2
   048D EA                 1259 	mov	a,r2
   048E 33                 1260 	rlc	a
   048F 95 E0              1261 	subb	a,acc
   0491 F5*06              1262 	mov	(_val + 1),a
   0493 F5*07              1263 	mov	(_val + 2),a
   0495 F5*08              1264 	mov	(_val + 3),a
                           1265 ; Peephole 132   changed ljmp to sjmp
   0497 80 1E              1266 	sjmp 00120$
   0499                    1267 00116$:
                           1268 ;	printfl.c 194
                           1269 ; Peephole 212  reduced add sequence to inc
   0499 A9*00              1270 	mov  r1,_bp
   049B 09                 1271 	inc  r1
   049C E7                 1272 	mov	a,@r1
   049D 24 FE              1273 	add	a,#0xfe
   049F F8                 1274 	mov	r0,a
                           1275 ; Peephole 212  reduced add sequence to inc
   04A0 A9*00              1276 	mov  r1,_bp
   04A2 09                 1277 	inc  r1
   04A3 A7 00              1278 	mov	@r1,ar0
   04A5 86 02              1279 	mov	ar2,@r0
   04A7 08                 1280 	inc	r0
   04A8 86 03              1281 	mov	ar3,@r0
   04AA 18                 1282 	dec	r0
   04AB 8A*05              1283 	mov	_val,r2
   04AD 8B*06              1284 	mov	(_val + 1),r3
   04AF EB                 1285 	mov	a,r3
   04B0 33                 1286 	rlc	a
   04B1 95 E0              1287 	subb	a,acc
   04B3 F5*07              1288 	mov	(_val + 2),a
   04B5 F5*08              1289 	mov	(_val + 3),a
   04B7                    1290 00120$:
                           1291 ;	printfl.c 196
   04B7 E5*01              1292 	mov	a,_radix
                           1293 ; Peephole 110   removed ljmp by inverse jump logic
   04B9 60 3D              1294 	jz  00123$
   04BB                    1295 00170$:
   04BB E5*01              1296 	mov	a,_radix
   04BD B4 08 02           1297 	cjne	a,#0x08,00171$
                           1298 ; Peephole 132   changed ljmp to sjmp
   04C0 80 43              1299 	sjmp 00124$
   04C2                    1300 00171$:
   04C2 E5*01              1301 	mov	a,_radix
   04C4 B4 0A 02           1302 	cjne	a,#0x0a,00172$
                           1303 ; Peephole 132   changed ljmp to sjmp
   04C7 80 07              1304 	sjmp 00121$
   04C9                    1305 00172$:
   04C9 E5*01              1306 	mov	a,_radix
                           1307 ; Peephole 132   changed ljmp to sjmp
                           1308 ;	printfl.c 198
                           1309 ; Peephole 132   changed ljmp to sjmp
                           1310 ; Peephole 199   optimized misc jump sequence
   04CB B4 10 50           1311 	cjne a,#0x10,00131$
   04CE 80 14              1312 	sjmp 00122$
   04D0                    1313 00173$:
   04D0                    1314 00121$:
   04D0 C0 06              1315 	push	ar6
   04D2 85*05 82           1316 	mov	dpl,_val
   04D5 85*06 83           1317 	mov	dph,(_val + 1)
   04D8 85*07 F0           1318 	mov	b,(_val + 2)
   04DB E5*08              1319 	mov	a,(_val + 3)
   04DD 12s02r19           1320 	lcall	_pvaldec
   04E0 D0 06              1321 	pop	ar6
                           1322 ;	printfl.c 199
                           1323 ;	printfl.c 201
                           1324 ; Peephole 132   changed ljmp to sjmp
   04E2 80 3A              1325 	sjmp 00131$
   04E4                    1326 00122$:
   04E4 C0 06              1327 	push	ar6
   04E6 85*05 82           1328 	mov	dpl,_val
   04E9 85*06 83           1329 	mov	dph,(_val + 1)
   04EC 85*07 F0           1330 	mov	b,(_val + 2)
   04EF E5*08              1331 	mov	a,(_val + 3)
   04F1 12s00r00           1332 	lcall	_pvalhex
   04F4 D0 06              1333 	pop	ar6
                           1334 ;	printfl.c 202
                           1335 ;	printfl.c 204
                           1336 ; Peephole 132   changed ljmp to sjmp
   04F6 80 26              1337 	sjmp 00131$
   04F8                    1338 00123$:
   04F8 AA*05              1339 	mov	r2,_val
   04FA C0 06              1340 	push	ar6
   04FC 8A 82              1341 	mov	dpl,r2
   04FE 12s00r00           1342 	lcall	_putchar
   0501 D0 06              1343 	pop	ar6
                           1344 ;	printfl.c 205
                           1345 ;	printfl.c 207
                           1346 ; Peephole 132   changed ljmp to sjmp
   0503 80 19              1347 	sjmp 00131$
   0505                    1348 00124$:
   0505 C0 06              1349 	push	ar6
   0507 85*05 82           1350 	mov	dpl,_val
   050A 85*06 83           1351 	mov	dph,(_val + 1)
   050D 85*07 F0           1352 	mov	b,(_val + 2)
   0510 E5*08              1353 	mov	a,(_val + 3)
   0512 12s00rD7           1354 	lcall	_pvaloct
   0515 D0 06              1355 	pop	ar6
                           1356 ;	printfl.c 209
                           1357 ; Peephole 132   changed ljmp to sjmp
   0517 80 05              1358 	sjmp 00131$
   0519                    1359 00127$:
                           1360 ;	printfl.c 212
   0519 8E 82              1361 	mov	dpl,r6
   051B 12s00r00           1362 	lcall	_putchar
   051E                    1363 00131$:
                           1364 ;	printfl.c 150
   051E E5*00              1365 	mov	a,_bp
   0520 24 FB              1366 	add	a,#0xfb
   0522 F8                 1367 	mov	r0,a
   0523 06                 1368 	inc	@r0
   0524 B6 00 02           1369 	cjne	@r0,#0x00,00174$
   0527 08                 1370 	inc	r0
   0528 06                 1371 	inc	@r0
   0529                    1372 00174$:
   0529 02s03r30           1373 	ljmp	00129$
   052C                    1374 00133$:
   052C 85*00 81           1375 	mov	sp,_bp
   052F D0*00              1376 	pop	_bp
                    0531   1377 	C$printfl.c$214$1$1 ==.
                    0531   1378 	XG$printf_small$0$0 ==.
   0531 22                 1379 	ret
                           1380 	.area	CSEG    (CODE)
                    0532   1381 Fprintfl$_str_0$0$0 == .
   0532                    1382 __str_0:
   0532 30 31 32 33 34 35  1383 	.ascii /0123456789ABCDEF/
        36 37 38 39 41 42
        43 44 45 46
   0542 00                 1384 	.byte	0
